; Function Attrs: nounwind uwtable
define internal { i64, ptr } @f_current_filename(ptr noundef %0, i64 %1, ptr %2) #0 {
  tail call void @jv_free(i64 %1, ptr %2) #14
  %4 = tail call { i64, ptr } @jq_util_input_get_current_filename(ptr noundef %0) #14
  %5 = extractvalue { i64, ptr } %4, 0
  %6 = extractvalue { i64, ptr } %4, 1
  %7 = tail call i32 @jv_get_kind(i64 %5, ptr %6) #14
  %.not5 = icmp eq i32 %7, 0
  br i1 %.not5, label %8, label %10

8:                                                ; preds = %3
  tail call void @jv_free(i64 %5, ptr %6) #14
  %9 = tail call { i64, ptr } @jv_null() #14
  br label %10

10:                                               ; preds = %3, %8
  %.fca.1.insert.merged = phi { i64, ptr } [ %9, %8 ], [ %4, %3 ]
  ret { i64, ptr } %.fca.1.insert.merged
}